target datalayout = "e-m:e-p270:32:32-p271:32:32-p272:64:64-i64:64-i128:128-f80:128-n8:16:32:64-S128"
target triple = "x86_64-pc-linux-gnu"

%struct.Glucose2_Pars_ = type { i32, i32, i32, i32 }
%struct.Abc_Frame_t_ = type { ptr, ptr, ptr, ptr, ptr, ptr, ptr, ptr, ptr, ptr, i32, i32, i32, i32, i32, ptr, float, float, i32, i32, ptr, ptr, ptr, double, double, ptr, ptr, ptr, ptr, ptr, ptr, ptr, ptr, ptr, ptr, ptr, ptr, float, ptr, i32, ptr, ptr, ptr, ptr, ptr, i32, i32, i32, i32, i32, i32, ptr, ptr, ptr, ptr, ptr, ptr, i32, i32, ptr, ptr, ptr, ptr, ptr, ptr, ptr, ptr, ptr, ptr, ptr, ptr, ptr, ptr, ptr, ptr, ptr, ptr, ptr, ptr, ptr, ptr, ptr, ptr, ptr, ptr, ptr, ptr, ptr, ptr }
%struct.Gia_Man_t_ = type { ptr, ptr, i32, i32, i32, i32, ptr, ptr, i32, i32, i32, ptr, ptr, %struct.Vec_Int_t_, %struct.Vec_Int_t_, i32, i32, i32, %struct.Vec_Int_t_, ptr, ptr, ptr, i32, i32, i32, i32, ptr, ptr, ptr, ptr, ptr, i32, i32, ptr, i32, ptr, ptr, ptr, ptr, ptr, ptr, ptr, ptr, ptr, ptr, ptr, ptr, ptr, ptr, ptr, ptr, ptr, ptr, %struct.Vec_Int_t_, %struct.Vec_Int_t_, ptr, ptr, ptr, ptr, ptr, ptr, ptr, ptr, ptr, ptr, ptr, ptr, ptr, ptr, ptr, ptr, ptr, ptr, ptr, ptr, ptr, i32, float, float, ptr, ptr, i32, ptr, ptr, ptr, ptr, ptr, ptr, ptr, ptr, ptr, ptr, ptr, ptr, ptr, ptr, ptr, i64, i64, ptr, ptr, i32, i32, i32, i32, i32, i32, i32, i32, i32, i32, i32, i32, ptr, ptr, ptr, ptr, ptr, ptr, ptr, ptr, i32, i32, i32, ptr, i32, i32, ptr, ptr, ptr, ptr, ptr, ptr, i32, i32, ptr, %struct.Vec_Int_t_, %struct.Vec_Int_t_, %struct.Vec_Int_t_, ptr, ptr, ptr, i32, i32, i32, i32, ptr, ptr, ptr, ptr, ptr }
%struct.Vec_Int_t_ = type { i32, i32, ptr }

@.str.2 = private unnamed_addr constant [5 x i8] c"Cpvh\00", align 1
@globalUtilOptind = external global i32, align 4
@.str.3 = private unnamed_addr constant [60 x i8] c"Command line switch \22-C\22 should be followed by an integer.\0A\00", align 1
@.str.4 = private unnamed_addr constant [40 x i8] c"Abc_CommandGlucose(): There is no AIG.\0A\00", align 1
@.str.5 = private unnamed_addr constant [45 x i8] c"usage: &glucose2 [-C num] [-pvh] <file.cnf>\0A\00", align 1
@.str.6 = private unnamed_addr constant [68 x i8] c"\09             run Glucose 3.0 by Gilles Audemard and Laurent Simon\0A\00", align 1
@.str.7 = private unnamed_addr constant [45 x i8] c"\09-C num     : conflict limit [default = %d]\0A\00", align 1
@.str.8 = private unnamed_addr constant [51 x i8] c"\09-p         : enable preprocessing [default = %d]\0A\00", align 1
@.str.9 = private unnamed_addr constant [40 x i8] c"\09-v         : verbosity [default = %d]\0A\00", align 1
@.str.10 = private unnamed_addr constant [39 x i8] c"\09-h         : print the command usage\0A\00", align 1
@.str.11 = private unnamed_addr constant [44 x i8] c"\09<file.cnf> : (optional) CNF file to solve\0A\00", align 1

; Function Attrs: inlinehint mustprogress nounwind uwtable
define internal { i64, i64 } @_ZL18Glucose_CreateParsiiii(i32 noundef %0, i32 noundef %1, i32 noundef %2, i32 noundef %3) #3 {
  %5 = alloca %struct.Glucose2_Pars_, align 4
  %6 = alloca i32, align 4
  %7 = alloca i32, align 4
  %8 = alloca i32, align 4
  %9 = alloca i32, align 4
  store i32 %0, ptr %6, align 4, !tbaa !8
  store i32 %1, ptr %7, align 4, !tbaa !8
  store i32 %2, ptr %8, align 4, !tbaa !8
  store i32 %3, ptr %9, align 4, !tbaa !8
  %10 = load i32, ptr %6, align 4, !tbaa !8
  %11 = getelementptr inbounds nuw %struct.Glucose2_Pars_, ptr %5, i32 0, i32 0
  store i32 %10, ptr %11, align 4, !tbaa !33
  %12 = load i32, ptr %7, align 4, !tbaa !8
  %13 = getelementptr inbounds nuw %struct.Glucose2_Pars_, ptr %5, i32 0, i32 1
  store i32 %12, ptr %13, align 4, !tbaa !35
  %14 = load i32, ptr %8, align 4, !tbaa !8
  %15 = getelementptr inbounds nuw %struct.Glucose2_Pars_, ptr %5, i32 0, i32 2
  store i32 %14, ptr %15, align 4, !tbaa !36
  %16 = load i32, ptr %9, align 4, !tbaa !8
  %17 = getelementptr inbounds nuw %struct.Glucose2_Pars_, ptr %5, i32 0, i32 3
  store i32 %16, ptr %17, align 4, !tbaa !37
  %18 = load { i64, i64 }, ptr %5, align 4
  ret { i64, i64 } %18
}

; Function Attrs: inlinehint mustprogress nounwind willreturn memory(read) uwtable
define available_externally i32 @atoi(ptr noundef nonnull %0) #4 {
  %2 = alloca ptr, align 8
  store ptr %0, ptr %2, align 8, !tbaa !12
  %3 = load ptr, ptr %2, align 8, !tbaa !12
  %4 = call i64 @strtol(ptr noundef %3, ptr noundef null, i32 noundef 10) #9
  %5 = trunc i64 %4 to i32
  ret i32 %5
}

; Function Attrs: mustprogress nounwind uwtable
define internal noundef i32 @_ZL18Abc_CommandGlucoseP12Abc_Frame_t_iPPc(ptr noundef %0, i32 noundef %1, ptr noundef %2) #0 {
  %4 = alloca i32, align 4
  %5 = alloca ptr, align 8
  %6 = alloca i32, align 4
  %7 = alloca ptr, align 8
  %8 = alloca i32, align 4
  %9 = alloca i32, align 4
  %10 = alloca i32, align 4
  %11 = alloca i32, align 4
  %12 = alloca %struct.Glucose2_Pars_, align 4
  %13 = alloca %struct.Glucose2_Pars_, align 4
  %14 = alloca i32, align 4
  store ptr %0, ptr %5, align 8, !tbaa !3
  store i32 %1, ptr %6, align 4, !tbaa !8
  store ptr %2, ptr %7, align 8, !tbaa !10
  call void @llvm.lifetime.start.p0(i64 4, ptr %8) #9
  store i32 0, ptr %8, align 4, !tbaa !8
  call void @llvm.lifetime.start.p0(i64 4, ptr %9) #9
  store i32 1, ptr %9, align 4, !tbaa !8
  call void @llvm.lifetime.start.p0(i64 4, ptr %10) #9
  store i32 0, ptr %10, align 4, !tbaa !8
  call void @llvm.lifetime.start.p0(i64 4, ptr %11) #9
  store i32 0, ptr %11, align 4, !tbaa !8
  call void @llvm.lifetime.start.p0(i64 16, ptr %12) #9
  call void @Extra_UtilGetoptReset()
  br label %15

15:                                               ; preds = %48, %3
  %16 = load i32, ptr %6, align 4, !tbaa !8
  %17 = load ptr, ptr %7, align 8, !tbaa !10
  %18 = call i32 @Extra_UtilGetopt(i32 noundef %16, ptr noundef %17, ptr noundef @.str.2)
  store i32 %18, ptr %8, align 4, !tbaa !8
  %19 = icmp ne i32 %18, -1
  br i1 %19, label %20, label %49

20:                                               ; preds = %15
  %21 = load i32, ptr %8, align 4, !tbaa !8
  switch i32 %21, label %47 [
    i32 67, label %22
    i32 112, label %40
    i32 118, label %43
    i32 104, label %46
  ]

22:                                               ; preds = %20
  %23 = load i32, ptr @globalUtilOptind, align 4, !tbaa !8
  %24 = load i32, ptr %6, align 4, !tbaa !8
  %25 = icmp sge i32 %23, %24
  br i1 %25, label %26, label %27

26:                                               ; preds = %22
  call void (i32, ptr, ...) @_ZL9Abc_PrintiPKcz(i32 noundef -1, ptr noundef @.str.3)
  br label %87

27:                                               ; preds = %22
  %28 = load ptr, ptr %7, align 8, !tbaa !10
  %29 = load i32, ptr @globalUtilOptind, align 4, !tbaa !8
  %30 = sext i32 %29 to i64
  %31 = getelementptr inbounds ptr, ptr %28, i64 %30
  %32 = load ptr, ptr %31, align 8, !tbaa !12
  %33 = call i32 @atoi(ptr noundef %32) #10
  store i32 %33, ptr %11, align 4, !tbaa !8
  %34 = load i32, ptr @globalUtilOptind, align 4, !tbaa !8
  %35 = add nsw i32 %34, 1
  store i32 %35, ptr @globalUtilOptind, align 4, !tbaa !8
  %36 = load i32, ptr %11, align 4, !tbaa !8
  %37 = icmp slt i32 %36, 0
  br i1 %37, label %38, label %39

38:                                               ; preds = %27
  br label %87

39:                                               ; preds = %27
  br label %48

40:                                               ; preds = %20
  %41 = load i32, ptr %9, align 4, !tbaa !8
  %42 = xor i32 %41, 1
  store i32 %42, ptr %9, align 4, !tbaa !8
  br label %48

43:                                               ; preds = %20
  %44 = load i32, ptr %10, align 4, !tbaa !8
  %45 = xor i32 %44, 1
  store i32 %45, ptr %10, align 4, !tbaa !8
  br label %48

46:                                               ; preds = %20
  br label %87

47:                                               ; preds = %20
  br label %87

48:                                               ; preds = %43, %40, %39
  br label %15, !llvm.loop !14

49:                                               ; preds = %15
  call void @llvm.lifetime.start.p0(i64 16, ptr %13) #9
  %50 = load i32, ptr %9, align 4, !tbaa !8
  %51 = load i32, ptr %10, align 4, !tbaa !8
  %52 = load i32, ptr %11, align 4, !tbaa !8
  %53 = call { i64, i64 } @_ZL18Glucose_CreateParsiiii(i32 noundef %50, i32 noundef %51, i32 noundef 0, i32 noundef %52)
  %54 = getelementptr inbounds nuw { i64, i64 }, ptr %13, i32 0, i32 0
  %55 = extractvalue { i64, i64 } %53, 0
  store i64 %55, ptr %54, align 4
  %56 = getelementptr inbounds nuw { i64, i64 }, ptr %13, i32 0, i32 1
  %57 = extractvalue { i64, i64 } %53, 1
  store i64 %57, ptr %56, align 4
  call void @llvm.memcpy.p0.p0.i64(ptr align 4 %12, ptr align 4 %13, i64 16, i1 false), !tbaa.struct !16
  call void @llvm.lifetime.end.p0(i64 16, ptr %13) #9
  %58 = load i32, ptr %6, align 4, !tbaa !8
  %59 = load i32, ptr @globalUtilOptind, align 4, !tbaa !8
  %60 = add nsw i32 %59, 1
  %61 = icmp eq i32 %58, %60
  br i1 %61, label %62, label %68

62:                                               ; preds = %49
  %63 = load ptr, ptr %7, align 8, !tbaa !10
  %64 = load i32, ptr @globalUtilOptind, align 4, !tbaa !8
  %65 = sext i32 %64 to i64
  %66 = getelementptr inbounds ptr, ptr %63, i64 %65
  %67 = load ptr, ptr %66, align 8, !tbaa !12
  call void @Glucose2_SolveCnf(ptr noundef %67, ptr noundef %12)
  store i32 0, ptr %4, align 4
  store i32 1, ptr %14, align 4
  br label %91

68:                                               ; preds = %49
  %69 = load ptr, ptr %5, align 8, !tbaa !3
  %70 = getelementptr inbounds nuw %struct.Abc_Frame_t_, ptr %69, i32 0, i32 40
  %71 = load ptr, ptr %70, align 8, !tbaa !17
  %72 = icmp eq ptr %71, null
  br i1 %72, label %73, label %74

73:                                               ; preds = %68
  call void (i32, ptr, ...) @_ZL9Abc_PrintiPKcz(i32 noundef -1, ptr noundef @.str.4)
  store i32 1, ptr %4, align 4
  store i32 1, ptr %14, align 4
  br label %91

74:                                               ; preds = %68
  %75 = load ptr, ptr %5, align 8, !tbaa !3
  %76 = getelementptr inbounds nuw %struct.Abc_Frame_t_, ptr %75, i32 0, i32 40
  %77 = load ptr, ptr %76, align 8, !tbaa !17
  %78 = call i32 @Glucose2_SolveAig(ptr noundef %77, ptr noundef %12)
  %79 = icmp eq i32 %78, 10
  br i1 %79, label %80, label %86

80:                                               ; preds = %74
  %81 = load ptr, ptr %5, align 8, !tbaa !3
  %82 = load ptr, ptr %5, align 8, !tbaa !3
  %83 = getelementptr inbounds nuw %struct.Abc_Frame_t_, ptr %82, i32 0, i32 40
  %84 = load ptr, ptr %83, align 8, !tbaa !17
  %85 = getelementptr inbounds nuw %struct.Gia_Man_t_, ptr %84, i32 0, i32 50
  call void @Abc_FrameReplaceCex(ptr noundef %81, ptr noundef %85)
  br label %86

86:                                               ; preds = %80, %74
  store i32 0, ptr %4, align 4
  store i32 1, ptr %14, align 4
  br label %91

87:                                               ; preds = %47, %46, %38, %26
  call void (i32, ptr, ...) @_ZL9Abc_PrintiPKcz(i32 noundef -2, ptr noundef @.str.5)
  call void (i32, ptr, ...) @_ZL9Abc_PrintiPKcz(i32 noundef -2, ptr noundef @.str.6)
  %88 = load i32, ptr %11, align 4, !tbaa !8
  call void (i32, ptr, ...) @_ZL9Abc_PrintiPKcz(i32 noundef -2, ptr noundef @.str.7, i32 noundef %88)
  %89 = load i32, ptr %9, align 4, !tbaa !8
  call void (i32, ptr, ...) @_ZL9Abc_PrintiPKcz(i32 noundef -2, ptr noundef @.str.8, i32 noundef %89)
  %90 = load i32, ptr %10, align 4, !tbaa !8
  call void (i32, ptr, ...) @_ZL9Abc_PrintiPKcz(i32 noundef -2, ptr noundef @.str.9, i32 noundef %90)
  call void (i32, ptr, ...) @_ZL9Abc_PrintiPKcz(i32 noundef -2, ptr noundef @.str.10)
  call void (i32, ptr, ...) @_ZL9Abc_PrintiPKcz(i32 noundef -2, ptr noundef @.str.11)
  store i32 1, ptr %4, align 4
  store i32 1, ptr %14, align 4
  br label %91

91:                                               ; preds = %87, %86, %73, %62
  call void @llvm.lifetime.end.p0(i64 16, ptr %12) #9
  call void @llvm.lifetime.end.p0(i64 4, ptr %11) #9
  call void @llvm.lifetime.end.p0(i64 4, ptr %10) #9
  call void @llvm.lifetime.end.p0(i64 4, ptr %9) #9
  call void @llvm.lifetime.end.p0(i64 4, ptr %8) #9
  %92 = load i32, ptr %4, align 4
  ret i32 %92
}