; Function Attrs: mustprogress nounwind uwtable
define internal noundef range(i32 0, 2) i32 @_ZL18Abc_CommandGlucoseP12Abc_Frame_t_iPPc(ptr noundef %0, i32 noundef %1, ptr noundef %2) #0 {
  %4 = alloca %struct.Glucose2_Pars_, align 8
  call void @llvm.lifetime.start.p0(i64 16, ptr nonnull %4) #10
  tail call void @Extra_UtilGetoptReset() #10
  br label %.outer

.outer:                                           ; preds = %18, %3
  %.023.ph = phi i32 [ %19, %18 ], [ 1, %3 ]
  %.021.ph = phi i32 [ %.021.ph64, %18 ], [ 0, %3 ]
  %.020.ph = phi i32 [ %.020, %18 ], [ 0, %3 ]
  br label %.outer63

.outer63:                                         ; preds = %.outer, %20
  %.021.ph64 = phi i32 [ %.021.ph, %.outer ], [ %21, %20 ]
  %.020.ph65 = phi i32 [ %.020.ph, %.outer ], [ %.020, %20 ]
  br label %5

5:                                                ; preds = %.outer63, %10
  %.020 = phi i32 [ %15, %10 ], [ %.020.ph65, %.outer63 ]
  %6 = tail call i32 @Extra_UtilGetopt(i32 noundef %1, ptr noundef %2, ptr noundef nonnull @.str.2) #10
  switch i32 %6, label %.loopexit [
    i32 -1, label %22
    i32 67, label %7
    i32 112, label %18
    i32 118, label %20
  ]

7:                                                ; preds = %5
  %8 = load i32, ptr @globalUtilOptind, align 4, !tbaa !3
  %.not30 = icmp slt i32 %8, %1
  br i1 %.not30, label %10, label %9

9:                                                ; preds = %7
  tail call void (i32, ptr, ...) @_ZL9Abc_PrintiPKcz(i32 noundef -1, ptr noundef nonnull @.str.3)
  br label %.loopexit

10:                                               ; preds = %7
  %11 = sext i32 %8 to i64
  %12 = getelementptr inbounds ptr, ptr %2, i64 %11
  %13 = load ptr, ptr %12, align 8, !tbaa !7
  %14 = tail call i64 @strtol(ptr noundef nonnull captures(none) %13, ptr noundef null, i32 noundef 10) #10
  %15 = trunc i64 %14 to i32
  %16 = add nsw i32 %8, 1
  store i32 %16, ptr @globalUtilOptind, align 4, !tbaa !3
  %17 = icmp slt i32 %15, 0
  br i1 %17, label %.loopexit, label %5, !llvm.loop !10

18:                                               ; preds = %5
  %19 = xor i32 %.023.ph, 1
  br label %.outer, !llvm.loop !10

20:                                               ; preds = %5
  %21 = xor i32 %.021.ph64, 1
  br label %.outer63, !llvm.loop !10

22:                                               ; preds = %5
  %.sroa.2.0.insert.ext.i = zext nneg i32 %.021.ph64 to i64
  %.sroa.2.0.insert.shift.i = shl nuw nsw i64 %.sroa.2.0.insert.ext.i, 32
  %.sroa.0.0.insert.ext.i = zext nneg i32 %.023.ph to i64
  %.sroa.0.0.insert.insert.i = or disjoint i64 %.sroa.2.0.insert.shift.i, %.sroa.0.0.insert.ext.i
  %.sroa.5.8.insert.ext.i = zext nneg i32 %.020 to i64
  %.sroa.5.8.insert.shift.i = shl nuw nsw i64 %.sroa.5.8.insert.ext.i, 32
  store i64 %.sroa.0.0.insert.insert.i, ptr %4, align 8
  %.sroa.4.0..sroa_idx = getelementptr inbounds nuw i8, ptr %4, i64 8
  store i64 %.sroa.5.8.insert.shift.i, ptr %.sroa.4.0..sroa_idx, align 8
  %23 = load i32, ptr @globalUtilOptind, align 4, !tbaa !3
  %24 = add nsw i32 %23, 1
  %25 = icmp eq i32 %1, %24
  br i1 %25, label %26, label %30

26:                                               ; preds = %22
  %27 = sext i32 %23 to i64
  %28 = getelementptr inbounds ptr, ptr %2, i64 %27
  %29 = load ptr, ptr %28, align 8, !tbaa !7
  call void @Glucose2_SolveCnf(ptr noundef %29, ptr noundef nonnull %4) #10
  br label %41

30:                                               ; preds = %22
  %31 = getelementptr inbounds nuw i8, ptr %0, i64 288
  %32 = load ptr, ptr %31, align 8, !tbaa !12
  %33 = icmp eq ptr %32, null
  br i1 %33, label %34, label %35

34:                                               ; preds = %30
  tail call void (i32, ptr, ...) @_ZL9Abc_PrintiPKcz(i32 noundef -1, ptr noundef nonnull @.str.4)
  br label %41

35:                                               ; preds = %30
  %36 = call i32 @Glucose2_SolveAig(ptr noundef nonnull %32, ptr noundef nonnull %4) #10
  %37 = icmp eq i32 %36, 10
  br i1 %37, label %38, label %41

38:                                               ; preds = %35
  %39 = load ptr, ptr %31, align 8, !tbaa !12
  %40 = getelementptr inbounds nuw i8, ptr %39, i64 368
  call void @Abc_FrameReplaceCex(ptr noundef nonnull %0, ptr noundef nonnull %40) #10
  br label %41

.loopexit:                                        ; preds = %5, %10, %9
  %.1 = phi i32 [ %.020, %9 ], [ %.020, %5 ], [ %15, %10 ]
  tail call void (i32, ptr, ...) @_ZL9Abc_PrintiPKcz(i32 noundef -2, ptr noundef nonnull @.str.5)
  tail call void (i32, ptr, ...) @_ZL9Abc_PrintiPKcz(i32 noundef -2, ptr noundef nonnull @.str.6)
  tail call void (i32, ptr, ...) @_ZL9Abc_PrintiPKcz(i32 noundef -2, ptr noundef nonnull @.str.7, i32 noundef %.1)
  tail call void (i32, ptr, ...) @_ZL9Abc_PrintiPKcz(i32 noundef -2, ptr noundef nonnull @.str.8, i32 noundef %.023.ph)
  tail call void (i32, ptr, ...) @_ZL9Abc_PrintiPKcz(i32 noundef -2, ptr noundef nonnull @.str.9, i32 noundef %.021.ph64)
  tail call void (i32, ptr, ...) @_ZL9Abc_PrintiPKcz(i32 noundef -2, ptr noundef nonnull @.str.10)
  tail call void (i32, ptr, ...) @_ZL9Abc_PrintiPKcz(i32 noundef -2, ptr noundef nonnull @.str.11)
  br label %41

41:                                               ; preds = %35, %38, %.loopexit, %34, %26
  %.0 = phi i32 [ 1, %.loopexit ], [ 0, %26 ], [ 1, %34 ], [ 0, %38 ], [ 0, %35 ]
  call void @llvm.lifetime.end.p0(i64 16, ptr nonnull %4) #10
  ret i32 %.0
}